target datalayout = "e-m:e-p270:32:32-p271:32:32-p272:64:64-i64:64-i128:128-f80:128-n8:16:32:64-S128"
target triple = "x86_64-pc-linux-gnu"

%class.SignatureIterator = type { ptr, i8, i64 }

; Function Attrs: mustprogress nounwind uwtable
define linkonce_odr hidden noundef i64 @_ZN17SignatureIterator20overflow_fingerprintEv() #1 comdat align 2 {
  ret i64 -1
}

; Function Attrs: mustprogress nounwind uwtable
define linkonce_odr hidden noundef i64 @_ZN17SignatureIterator16zero_fingerprintEv() #1 comdat align 2 {
  ret i64 0
}

; Function Attrs: mustprogress nounwind uwtable
define linkonce_odr hidden noundef zeroext i8 @_ZN17SignatureIterator14fp_return_typeEm(i64 noundef %0) #1 comdat align 2 {
  %2 = alloca i64, align 8
  store i64 %0, ptr %2, align 8
  %3 = load i64, ptr %2, align 8
  %4 = lshr i64 %3, 1
  %5 = and i64 %4, 15
  %6 = trunc i64 %5 to i8
  ret i8 %6
}

; Function Attrs: mustprogress nounwind uwtable
define linkonce_odr hidden noundef zeroext i1 @_ZN17SignatureIterator11fp_is_validEm(i64 noundef %0) #1 comdat align 2 {
  %2 = alloca i64, align 8
  store i64 %0, ptr %2, align 8
  %3 = load i64, ptr %2, align 8
  %4 = call noundef i64 @_ZN17SignatureIterator16zero_fingerprintEv()
  %5 = icmp ne i64 %3, %4
  br i1 %5, label %6, label %10

6:                                                ; preds = %1
  %7 = load i64, ptr %2, align 8
  %8 = call noundef i64 @_ZN17SignatureIterator20overflow_fingerprintEv()
  %9 = icmp ne i64 %7, %8
  br label %10

10:                                               ; preds = %6, %1
  %11 = phi i1 [ false, %1 ], [ %9, %6 ]
  ret i1 %11
}

; Function Attrs: mustprogress nounwind uwtable
define hidden void @_ZN17SignatureIterator15set_fingerprintEm(ptr noundef nonnull align 8 dereferenceable(24) %0, i64 noundef %1) #1 align 2 {
  %3 = alloca ptr, align 8
  %4 = alloca i64, align 8
  store ptr %0, ptr %3, align 8
  store i64 %1, ptr %4, align 8
  %5 = load ptr, ptr %3, align 8
  %6 = load i64, ptr %4, align 8
  %7 = call noundef zeroext i1 @_ZN17SignatureIterator11fp_is_validEm(i64 noundef %6)
  br i1 %7, label %12, label %8

8:                                                ; preds = %2
  %9 = load i64, ptr %4, align 8
  %10 = getelementptr inbounds %class.SignatureIterator, ptr %5, i32 0, i32 2
  store i64 %9, ptr %10, align 8
  %11 = getelementptr inbounds %class.SignatureIterator, ptr %5, i32 0, i32 1
  store i8 99, ptr %11, align 8
  br label %24

12:                                               ; preds = %2
  %13 = load i64, ptr %4, align 8
  %14 = getelementptr inbounds %class.SignatureIterator, ptr %5, i32 0, i32 2
  %15 = load i64, ptr %14, align 8
  %16 = icmp ne i64 %13, %15
  br i1 %16, label %17, label %23

17:                                               ; preds = %12
  %18 = load i64, ptr %4, align 8
  %19 = getelementptr inbounds %class.SignatureIterator, ptr %5, i32 0, i32 2
  store i64 %18, ptr %19, align 8
  %20 = load i64, ptr %4, align 8
  %21 = call noundef zeroext i8 @_ZN17SignatureIterator14fp_return_typeEm(i64 noundef %20)
  %22 = getelementptr inbounds %class.SignatureIterator, ptr %5, i32 0, i32 1
  store i8 %21, ptr %22, align 8
  br label %23

23:                                               ; preds = %17, %12
  br label %24

24:                                               ; preds = %23, %8
  ret void
}