; Function Attrs: mustprogress nofree norecurse nosync nounwind willreturn memory(argmem: readwrite) uwtable
define hidden void @_ZN17SignatureIterator15set_fingerprintEm(ptr nocapture noundef nonnull align 8 dereferenceable(24) %0, i64 noundef %1) local_unnamed_addr #0 align 2 {
  %3 = add i64 %1, -1
  %spec.select.i = icmp ult i64 %3, -2
  %4 = getelementptr inbounds i8, ptr %0, i64 16
  br i1 %spec.select.i, label %6, label %5

5:                                                ; preds = %2
  store i64 %1, ptr %4, align 8
  br label %.sink.split

6:                                                ; preds = %2
  %7 = load i64, ptr %4, align 8
  %.not = icmp eq i64 %7, %1
  br i1 %.not, label %13, label %8

8:                                                ; preds = %6
  store i64 %1, ptr %4, align 8
  %9 = trunc i64 %1 to i8
  %10 = lshr i8 %9, 1
  %11 = and i8 %10, 15
  br label %.sink.split

.sink.split:                                      ; preds = %5, %8
  %.sink = phi i8 [ %11, %8 ], [ 99, %5 ]
  %12 = getelementptr inbounds i8, ptr %0, i64 8
  store i8 %.sink, ptr %12, align 8
  br label %13

13:                                               ; preds = %.sink.split, %6
  ret void
}